target datalayout = "e-m:e-p270:32:32-p271:32:32-p272:64:64-i64:64-i128:128-f80:128-n8:16:32:64-S128"
target triple = "x86_64-unknown-linux-gnu"

%"class.std::__cxx11::basic_string" = type { %"struct.std::__cxx11::basic_string<char>::_Alloc_hider", i64, %union.anon }
%"struct.std::__cxx11::basic_string<char>::_Alloc_hider" = type { ptr }
%union.anon = type { i64, [8 x i8] }
%"class.std::allocator.0" = type { i8 }
%"class.Imf_3_2::TiledRgbaInputFile" = type { ptr, ptr, ptr, %"class.std::__cxx11::basic_string" }

@.str.7 = private unnamed_addr constant [1 x i8] zeroinitializer, align 1
@_ZTVN7Imf_3_218TiledRgbaInputFileE = unnamed_addr constant { [4 x ptr] } { [4 x ptr] [ptr null, ptr @_ZTIN7Imf_3_218TiledRgbaInputFileE, ptr @_ZN7Imf_3_218TiledRgbaInputFileD1Ev, ptr @_ZN7Imf_3_218TiledRgbaInputFileD0Ev] }, align 8
@.str.12 = private unnamed_addr constant [50 x i8] c"basic_string: construction from null is not valid\00", align 1
@_ZN7Imf_3_218TiledRgbaInputFile6FromYaC1ERNS_14TiledInputFileE = unnamed_addr alias void (ptr, ptr), ptr @_ZN7Imf_3_218TiledRgbaInputFile6FromYaC2ERNS_14TiledInputFileE

; Function Attrs: mustprogress nounwind uwtable
define linkonce_odr hidden noundef i64 @_ZNSt11char_traitsIcE6lengthEPKc(ptr noundef %__s) #5 comdat align 2 {
entry:
  %__s.addr = alloca ptr, align 8
  store ptr %__s, ptr %__s.addr, align 8
  %0 = load ptr, ptr %__s.addr, align 8
  %call = call i64 @strlen(ptr noundef %0) #3
  ret i64 %call
}

; Function Attrs: mustprogress nounwind uwtable
define linkonce_odr hidden void @_ZNSt7__cxx1112basic_stringIcSt11char_traitsIcESaIcEE12_Alloc_hiderD2Ev(ptr noundef nonnull align 8 dereferenceable(8) %this) unnamed_addr #5 comdat align 2 {
entry:
  %this.addr = alloca ptr, align 8
  store ptr %this, ptr %this.addr, align 8
  %this1 = load ptr, ptr %this.addr, align 8
  call void @_ZNSaIcED2Ev(ptr noundef nonnull align 1 dereferenceable(1) %this1) #3
  ret void
}

; Function Attrs: mustprogress uwtable
define noundef i32 @_ZNK7Imf_3_218TiledRgbaInputFile8channelsEv(ptr noundef nonnull align 8 dereferenceable(56) %this) #4 align 2 {
entry:
  %this.addr = alloca ptr, align 8
  store ptr %this, ptr %this.addr, align 8
  %this1 = load ptr, ptr %this.addr, align 8
  %_inputFile = getelementptr inbounds %"class.Imf_3_2::TiledRgbaInputFile", ptr %this1, i32 0, i32 1
  %0 = load ptr, ptr %_inputFile, align 8
  %call = call noundef nonnull align 8 dereferenceable(49) ptr @_ZNK7Imf_3_214TiledInputFile6headerEv(ptr noundef nonnull align 8 dereferenceable(16) %0)
  %call2 = call noundef nonnull align 8 dereferenceable(48) ptr @_ZNK7Imf_3_26Header8channelsEv(ptr noundef nonnull align 8 dereferenceable(49) %call)
  %_channelNamePrefix = getelementptr inbounds %"class.Imf_3_2::TiledRgbaInputFile", ptr %this1, i32 0, i32 3
  %call3 = call noundef i32 @_ZN7Imf_3_212_GLOBAL__N_112rgbaChannelsERKNS_11ChannelListERKNSt7__cxx1112basic_stringIcSt11char_traitsIcESaIcEEE(ptr noundef nonnull align 8 dereferenceable(48) %call2, ptr noundef nonnull align 8 dereferenceable(32) %_channelNamePrefix)
  ret i32 %call3
}

; Function Attrs: mustprogress uwtable
define linkonce_odr hidden void @_ZNSt7__cxx1112basic_stringIcSt11char_traitsIcESaIcEEC2IS3_EEPKcRKS3_(ptr noundef nonnull align 8 dereferenceable(32) %this, ptr noundef %__s, ptr noundef nonnull align 1 dereferenceable(1) %__a) unnamed_addr #4 comdat align 2 personality ptr @__gxx_personality_v0 {
entry:
  %this.addr = alloca ptr, align 8
  %__s.addr = alloca ptr, align 8
  %__a.addr = alloca ptr, align 8
  %exn.slot = alloca ptr, align 8
  %ehselector.slot = alloca i32, align 4
  %__end = alloca ptr, align 8
  store ptr %this, ptr %this.addr, align 8
  store ptr %__s, ptr %__s.addr, align 8
  store ptr %__a, ptr %__a.addr, align 8
  %this1 = load ptr, ptr %this.addr, align 8
  %_M_dataplus = getelementptr inbounds %"class.std::__cxx11::basic_string", ptr %this1, i32 0, i32 0
  %call = call noundef ptr @_ZNSt7__cxx1112basic_stringIcSt11char_traitsIcESaIcEE13_M_local_dataEv(ptr noundef nonnull align 8 dereferenceable(32) %this1)
  %0 = load ptr, ptr %__a.addr, align 8
  call void @_ZNSt7__cxx1112basic_stringIcSt11char_traitsIcESaIcEE12_Alloc_hiderC1EPcRKS3_(ptr noundef nonnull align 8 dereferenceable(8) %_M_dataplus, ptr noundef %call, ptr noundef nonnull align 1 dereferenceable(1) %0)
  %1 = load ptr, ptr %__s.addr, align 8
  %cmp = icmp eq ptr %1, null
  br i1 %cmp, label %if.then, label %if.end

if.then:                                          ; preds = %entry
  invoke void @_ZSt19__throw_logic_errorPKc(ptr noundef @.str.12) #14
          to label %invoke.cont unwind label %lpad

invoke.cont:                                      ; preds = %if.then
  unreachable

lpad:                                             ; preds = %invoke.cont2, %if.end, %if.then
  %2 = landingpad { ptr, i32 }
          cleanup
  %3 = extractvalue { ptr, i32 } %2, 0
  store ptr %3, ptr %exn.slot, align 8
  %4 = extractvalue { ptr, i32 } %2, 1
  store i32 %4, ptr %ehselector.slot, align 4
  call void @_ZNSt7__cxx1112basic_stringIcSt11char_traitsIcESaIcEE12_Alloc_hiderD2Ev(ptr noundef nonnull align 8 dereferenceable(8) %_M_dataplus) #3
  br label %eh.resume

if.end:                                           ; preds = %entry
  %5 = load ptr, ptr %__s.addr, align 8
  %6 = load ptr, ptr %__s.addr, align 8
  %call3 = invoke noundef i64 @_ZNSt11char_traitsIcE6lengthEPKc(ptr noundef %6)
          to label %invoke.cont2 unwind label %lpad

invoke.cont2:                                     ; preds = %if.end
  %add.ptr = getelementptr inbounds i8, ptr %5, i64 %call3
  store ptr %add.ptr, ptr %__end, align 8
  %7 = load ptr, ptr %__s.addr, align 8
  %8 = load ptr, ptr %__end, align 8
  invoke void @_ZNSt7__cxx1112basic_stringIcSt11char_traitsIcESaIcEE12_M_constructIPKcEEvT_S8_St20forward_iterator_tag(ptr noundef nonnull align 8 dereferenceable(32) %this1, ptr noundef %7, ptr noundef %8)
          to label %invoke.cont4 unwind label %lpad

invoke.cont4:                                     ; preds = %invoke.cont2
  ret void

eh.resume:                                        ; preds = %lpad
  %exn = load ptr, ptr %exn.slot, align 8
  %sel = load i32, ptr %ehselector.slot, align 4
  %lpad.val = insertvalue { ptr, i32 } poison, ptr %exn, 0
  %lpad.val5 = insertvalue { ptr, i32 } %lpad.val, i32 %sel, 1
  resume { ptr, i32 } %lpad.val5
}

; Function Attrs: mustprogress uwtable
define void @_ZN7Imf_3_218TiledRgbaInputFileC2ERNS_7IStreamEi(ptr noundef nonnull align 8 dereferenceable(56) %this, ptr noundef nonnull align 8 dereferenceable(40) %is, i32 noundef %numThreads) unnamed_addr #4 align 2 personality ptr @__gxx_personality_v0 {
entry:
  %this.addr = alloca ptr, align 8
  %is.addr = alloca ptr, align 8
  %numThreads.addr = alloca i32, align 4
  %exn.slot = alloca ptr, align 8
  %ehselector.slot = alloca i32, align 4
  %ref.tmp = alloca %"class.std::allocator.0", align 1
  store ptr %this, ptr %this.addr, align 8
  store ptr %is, ptr %is.addr, align 8
  store i32 %numThreads, ptr %numThreads.addr, align 4
  %this1 = load ptr, ptr %this.addr, align 8
  store ptr getelementptr inbounds ({ [4 x ptr] }, ptr @_ZTVN7Imf_3_218TiledRgbaInputFileE, i32 0, i32 0, i32 2), ptr %this1, align 8
  %_inputFile = getelementptr inbounds %"class.Imf_3_2::TiledRgbaInputFile", ptr %this1, i32 0, i32 1
  %call = call noalias noundef nonnull ptr @_Znwm(i64 noundef 16) #12
  %0 = load ptr, ptr %is.addr, align 8
  %1 = load i32, ptr %numThreads.addr, align 4
  invoke void @_ZN7Imf_3_214TiledInputFileC1ERNS_7IStreamEi(ptr noundef nonnull align 8 dereferenceable(16) %call, ptr noundef nonnull align 8 dereferenceable(40) %0, i32 noundef %1)
          to label %invoke.cont unwind label %lpad

invoke.cont:                                      ; preds = %entry
  store ptr %call, ptr %_inputFile, align 8
  %_fromYa = getelementptr inbounds %"class.Imf_3_2::TiledRgbaInputFile", ptr %this1, i32 0, i32 2
  store ptr null, ptr %_fromYa, align 8
  %_channelNamePrefix = getelementptr inbounds %"class.Imf_3_2::TiledRgbaInputFile", ptr %this1, i32 0, i32 3
  call void @_ZNSaIcEC1Ev(ptr noundef nonnull align 1 dereferenceable(1) %ref.tmp) #3
  invoke void @_ZNSt7__cxx1112basic_stringIcSt11char_traitsIcESaIcEEC2IS3_EEPKcRKS3_(ptr noundef nonnull align 8 dereferenceable(32) %_channelNamePrefix, ptr noundef @.str.7, ptr noundef nonnull align 1 dereferenceable(1) %ref.tmp)
          to label %invoke.cont3 unwind label %lpad2

invoke.cont3:                                     ; preds = %invoke.cont
  call void @_ZNSaIcED1Ev(ptr noundef nonnull align 1 dereferenceable(1) %ref.tmp) #3
  %call6 = invoke noundef i32 @_ZNK7Imf_3_218TiledRgbaInputFile8channelsEv(ptr noundef nonnull align 8 dereferenceable(56) %this1)
          to label %invoke.cont5 unwind label %lpad4

invoke.cont5:                                     ; preds = %invoke.cont3
  %and = and i32 %call6, 16
  %tobool = icmp ne i32 %and, 0
  br i1 %tobool, label %if.then, label %if.end

if.then:                                          ; preds = %invoke.cont5
  %call8 = invoke noalias noundef nonnull ptr @_Znwm(i64 noundef 80) #12
          to label %invoke.cont7 unwind label %lpad4

invoke.cont7:                                     ; preds = %if.then
  %_inputFile9 = getelementptr inbounds %"class.Imf_3_2::TiledRgbaInputFile", ptr %this1, i32 0, i32 1
  %2 = load ptr, ptr %_inputFile9, align 8
  invoke void @_ZN7Imf_3_218TiledRgbaInputFile6FromYaC1ERNS_14TiledInputFileE(ptr noundef nonnull align 8 dereferenceable(80) %call8, ptr noundef nonnull align 8 dereferenceable(16) %2)
          to label %invoke.cont11 unwind label %lpad10

invoke.cont11:                                    ; preds = %invoke.cont7
  %_fromYa12 = getelementptr inbounds %"class.Imf_3_2::TiledRgbaInputFile", ptr %this1, i32 0, i32 2
  store ptr %call8, ptr %_fromYa12, align 8
  br label %if.end

lpad:                                             ; preds = %entry
  %3 = landingpad { ptr, i32 }
          cleanup
  %4 = extractvalue { ptr, i32 } %3, 0
  store ptr %4, ptr %exn.slot, align 8
  %5 = extractvalue { ptr, i32 } %3, 1
  store i32 %5, ptr %ehselector.slot, align 4
  call void @_ZdlPv(ptr noundef %call) #13
  br label %eh.resume

lpad2:                                            ; preds = %invoke.cont
  %6 = landingpad { ptr, i32 }
          cleanup
  %7 = extractvalue { ptr, i32 } %6, 0
  store ptr %7, ptr %exn.slot, align 8
  %8 = extractvalue { ptr, i32 } %6, 1
  store i32 %8, ptr %ehselector.slot, align 4
  call void @_ZNSaIcED1Ev(ptr noundef nonnull align 1 dereferenceable(1) %ref.tmp) #3
  br label %eh.resume

lpad4:                                            ; preds = %if.then, %invoke.cont3
  %9 = landingpad { ptr, i32 }
          cleanup
  %10 = extractvalue { ptr, i32 } %9, 0
  store ptr %10, ptr %exn.slot, align 8
  %11 = extractvalue { ptr, i32 } %9, 1
  store i32 %11, ptr %ehselector.slot, align 4
  br label %ehcleanup

lpad10:                                           ; preds = %invoke.cont7
  %12 = landingpad { ptr, i32 }
          cleanup
  %13 = extractvalue { ptr, i32 } %12, 0
  store ptr %13, ptr %exn.slot, align 8
  %14 = extractvalue { ptr, i32 } %12, 1
  store i32 %14, ptr %ehselector.slot, align 4
  call void @_ZdlPv(ptr noundef %call8) #13
  br label %ehcleanup

if.end:                                           ; preds = %invoke.cont11, %invoke.cont5
  ret void

ehcleanup:                                        ; preds = %lpad10, %lpad4
  call void @_ZNSt7__cxx1112basic_stringIcSt11char_traitsIcESaIcEED1Ev(ptr noundef nonnull align 8 dereferenceable(32) %_channelNamePrefix) #3
  br label %eh.resume

eh.resume:                                        ; preds = %ehcleanup, %lpad2, %lpad
  %exn = load ptr, ptr %exn.slot, align 8
  %sel = load i32, ptr %ehselector.slot, align 4
  %lpad.val = insertvalue { ptr, i32 } poison, ptr %exn, 0
  %lpad.val13 = insertvalue { ptr, i32 } %lpad.val, i32 %sel, 1
  resume { ptr, i32 } %lpad.val13
}